target datalayout = "e-m:e-p270:32:32-p271:32:32-p272:64:64-i64:64-i128:128-f80:128-n8:16:32:64-S128"
target triple = "x86_64-pc-linux-gnu"

%struct.FFOutputFormat = type { %struct.AVOutputFormat, i32, i32, ptr, ptr, ptr, ptr, ptr, ptr, ptr, ptr, ptr, ptr, ptr, ptr }
%struct.AVOutputFormat = type { ptr, ptr, ptr, ptr, i32, i32, i32, i32, ptr, ptr }
%union.anon = type { i64 }
%struct.AVFormatContext = type { ptr, ptr, ptr, ptr, ptr, i32, i32, ptr, i32, ptr, i32, ptr, ptr, i64, i64, i64, i32, i32, i32, i64, i64, ptr, i32, i32, ptr, i32, i32, i32, i32, ptr, i64, i32, i32, %struct.AVIOInterruptCB, i32, i32, i32, i32, i64, i32, i32, i32, i32, i32, i32, i32, i32, i32, i32, i32, i32, i64, i32, i32, i32, i32, i32, ptr, ptr, ptr, ptr, i32, ptr, ptr, ptr, ptr, i32, ptr, ptr, i64, ptr, ptr, ptr, i64 }
%struct.AVIOInterruptCB = type { ptr, ptr }
%struct.AVPacket = type { ptr, i64, i64, ptr, i32, i32, i32, ptr, i32, i64, i64, ptr, ptr, %struct.AVRational }
%struct.AVRational = type { i32, i32 }
%struct.AC4Context = type { ptr, i32 }

@.str = private unnamed_addr constant [4 x i8] c"ac4\00", align 1
@.str.1 = private unnamed_addr constant [9 x i8] c"raw AC-4\00", align 1
@.str.2 = private unnamed_addr constant [10 x i8] c"audio/ac4\00", align 1
@ff_ac4_muxer = constant %struct.FFOutputFormat { %struct.AVOutputFormat { ptr @.str, ptr @.str.1, ptr @.str.2, ptr @.str, i32 86119, i32 0, i32 0, i32 128, ptr null, ptr @ac4_muxer_class }, i32 16, i32 12, ptr null, ptr @ac4_write_packet, ptr null, ptr null, ptr null, ptr null, ptr null, ptr null, ptr null, ptr null, ptr null, ptr null }, align 8
@.str.3 = private unnamed_addr constant [10 x i8] c"AC4 muxer\00", align 1
@ac4_muxer_class = internal constant { ptr, ptr, ptr, i32, i32, i32, i32, ptr, ptr, ptr, ptr, i32, [4 x i8] } { ptr @.str.3, ptr @av_default_item_name, ptr @ac4_options, i32 3932772, i32 0, i32 0, i32 0, ptr null, ptr null, ptr null, ptr null, i32 0, [4 x i8] zeroinitializer }, align 8
@.str.5 = private unnamed_addr constant [10 x i8] c"write_crc\00", align 1
@.str.6 = private unnamed_addr constant [16 x i8] c"enable checksum\00", align 1
@ac4_options = internal constant [2 x { ptr, ptr, i32, i32, %union.anon, double, double, i32, [4 x i8], ptr }] [{ ptr, ptr, i32, i32, %union.anon, double, double, i32, [4 x i8], ptr } { ptr @.str.5, ptr @.str.6, i32 8, i32 18, %union.anon zeroinitializer, double 0.000000e+00, double 1.000000e+00, i32 1, [4 x i8] zeroinitializer, ptr null }, { ptr, ptr, i32, i32, %union.anon, double, double, i32, [4 x i8], ptr } zeroinitializer], align 16

; Function Attrs: nounwind uwtable
define internal i32 @ac4_write_packet(ptr noundef %0, ptr noundef %1) #0 {
  %3 = alloca i32, align 4
  %4 = alloca ptr, align 8
  %5 = alloca ptr, align 8
  %6 = alloca ptr, align 8
  %7 = alloca ptr, align 8
  %8 = alloca i32, align 4
  %9 = alloca i16, align 2
  store ptr %0, ptr %4, align 8, !tbaa !4
  store ptr %1, ptr %5, align 8, !tbaa !9
  call void @llvm.lifetime.start.p0(i64 8, ptr %6) #4
  %10 = load ptr, ptr %4, align 8, !tbaa !4
  %11 = getelementptr inbounds nuw %struct.AVFormatContext, ptr %10, i32 0, i32 3
  %12 = load ptr, ptr %11, align 8, !tbaa !11
  store ptr %12, ptr %6, align 8, !tbaa !28
  call void @llvm.lifetime.start.p0(i64 8, ptr %7) #4
  %13 = load ptr, ptr %4, align 8, !tbaa !4
  %14 = getelementptr inbounds nuw %struct.AVFormatContext, ptr %13, i32 0, i32 4
  %15 = load ptr, ptr %14, align 8, !tbaa !30
  store ptr %15, ptr %7, align 8, !tbaa !31
  %16 = load ptr, ptr %5, align 8, !tbaa !9
  %17 = getelementptr inbounds nuw %struct.AVPacket, ptr %16, i32 0, i32 4
  %18 = load i32, ptr %17, align 8, !tbaa !32
  %19 = icmp ne i32 %18, 0
  br i1 %19, label %21, label %20

20:                                               ; preds = %2
  store i32 0, ptr %3, align 4
  store i32 1, ptr %8, align 4
  br label %73

21:                                               ; preds = %2
  %22 = load ptr, ptr %6, align 8, !tbaa !28
  %23 = getelementptr inbounds nuw %struct.AC4Context, ptr %22, i32 0, i32 1
  %24 = load i32, ptr %23, align 8, !tbaa !37
  %25 = icmp ne i32 %24, 0
  br i1 %25, label %26, label %28

26:                                               ; preds = %21
  %27 = load ptr, ptr %7, align 8, !tbaa !31
  call void @avio_wb16(ptr noundef %27, i32 noundef 44097)
  br label %30

28:                                               ; preds = %21
  %29 = load ptr, ptr %7, align 8, !tbaa !31
  call void @avio_wb16(ptr noundef %29, i32 noundef 44096)
  br label %30

30:                                               ; preds = %28, %26
  %31 = load ptr, ptr %5, align 8, !tbaa !9
  %32 = getelementptr inbounds nuw %struct.AVPacket, ptr %31, i32 0, i32 4
  %33 = load i32, ptr %32, align 8, !tbaa !32
  %34 = icmp sge i32 %33, 65535
  br i1 %34, label %35, label %41

35:                                               ; preds = %30
  %36 = load ptr, ptr %7, align 8, !tbaa !31
  call void @avio_wb16(ptr noundef %36, i32 noundef 65535)
  %37 = load ptr, ptr %7, align 8, !tbaa !31
  %38 = load ptr, ptr %5, align 8, !tbaa !9
  %39 = getelementptr inbounds nuw %struct.AVPacket, ptr %38, i32 0, i32 4
  %40 = load i32, ptr %39, align 8, !tbaa !32
  call void @avio_wb24(ptr noundef %37, i32 noundef %40)
  br label %46

41:                                               ; preds = %30
  %42 = load ptr, ptr %7, align 8, !tbaa !31
  %43 = load ptr, ptr %5, align 8, !tbaa !9
  %44 = getelementptr inbounds nuw %struct.AVPacket, ptr %43, i32 0, i32 4
  %45 = load i32, ptr %44, align 8, !tbaa !32
  call void @avio_wb16(ptr noundef %42, i32 noundef %45)
  br label %46

46:                                               ; preds = %41, %35
  %47 = load ptr, ptr %7, align 8, !tbaa !31
  %48 = load ptr, ptr %5, align 8, !tbaa !9
  %49 = getelementptr inbounds nuw %struct.AVPacket, ptr %48, i32 0, i32 3
  %50 = load ptr, ptr %49, align 8, !tbaa !39
  %51 = load ptr, ptr %5, align 8, !tbaa !9
  %52 = getelementptr inbounds nuw %struct.AVPacket, ptr %51, i32 0, i32 4
  %53 = load i32, ptr %52, align 8, !tbaa !32
  call void @avio_write(ptr noundef %47, ptr noundef %50, i32 noundef %53)
  %54 = load ptr, ptr %6, align 8, !tbaa !28
  %55 = getelementptr inbounds nuw %struct.AC4Context, ptr %54, i32 0, i32 1
  %56 = load i32, ptr %55, align 8, !tbaa !37
  %57 = icmp ne i32 %56, 0
  br i1 %57, label %58, label %72

58:                                               ; preds = %46
  call void @llvm.lifetime.start.p0(i64 2, ptr %9) #4
  %59 = call ptr @av_crc_get_table(i32 noundef 1)
  %60 = load ptr, ptr %5, align 8, !tbaa !9
  %61 = getelementptr inbounds nuw %struct.AVPacket, ptr %60, i32 0, i32 3
  %62 = load ptr, ptr %61, align 8, !tbaa !39
  %63 = load ptr, ptr %5, align 8, !tbaa !9
  %64 = getelementptr inbounds nuw %struct.AVPacket, ptr %63, i32 0, i32 4
  %65 = load i32, ptr %64, align 8, !tbaa !32
  %66 = sext i32 %65 to i64
  %67 = call i32 @av_crc(ptr noundef %59, i32 noundef 0, ptr noundef %62, i64 noundef %66) #5
  %68 = trunc i32 %67 to i16
  store i16 %68, ptr %9, align 2, !tbaa !40
  %69 = load ptr, ptr %7, align 8, !tbaa !31
  %70 = load i16, ptr %9, align 2, !tbaa !40
  %71 = zext i16 %70 to i32
  call void @avio_wl16(ptr noundef %69, i32 noundef %71)
  call void @llvm.lifetime.end.p0(i64 2, ptr %9) #4
  br label %72

72:                                               ; preds = %58, %46
  store i32 0, ptr %3, align 4
  store i32 1, ptr %8, align 4
  br label %73

73:                                               ; preds = %72, %20
  call void @llvm.lifetime.end.p0(i64 8, ptr %7) #4
  call void @llvm.lifetime.end.p0(i64 8, ptr %6) #4
  %74 = load i32, ptr %3, align 4
  ret i32 %74
}

declare ptr @av_default_item_name(ptr noundef) #1

; Function Attrs: nocallback nofree nosync nounwind willreturn memory(argmem: readwrite)
declare void @llvm.lifetime.start.p0(i64 immarg, ptr captures(none)) #2

declare void @avio_wb16(ptr noundef, i32 noundef) #1

declare void @avio_wb24(ptr noundef, i32 noundef) #1

declare void @avio_write(ptr noundef, ptr noundef, i32 noundef) #1

; Function Attrs: nounwind willreturn memory(read)
declare i32 @av_crc(ptr noundef, i32 noundef, ptr noundef, i64 noundef) #3

declare ptr @av_crc_get_table(i32 noundef) #1

declare void @avio_wl16(ptr noundef, i32 noundef) #1

; Function Attrs: nocallback nofree nosync nounwind willreturn memory(argmem: readwrite)
declare void @llvm.lifetime.end.p0(i64 immarg, ptr captures(none)) #2


!llvm.module.flags = !{!0, !1, !2, !3}

!0 = !{i32 1, !"wchar_size", i32 4}
!1 = !{i32 8, !"PIC Level", i32 2}
!2 = !{i32 7, !"uwtable", i32 2}
!3 = !{i32 1, !"override-stack-alignment", i32 16}
!4 = !{!5, !5, i64 0}
!5 = !{!"p1 _ZTS15AVFormatContext", !6, i64 0}
!6 = !{!"any pointer", !7, i64 0}
!7 = !{!"omnipotent char", !8, i64 0}
!8 = !{!"Simple C/C++ TBAA"}
!9 = !{!10, !10, i64 0}
!10 = !{!"p1 _ZTS8AVPacket", !6, i64 0}
!11 = !{!12, !6, i64 24}
!12 = !{!"AVFormatContext", !13, i64 0, !14, i64 8, !15, i64 16, !6, i64 24, !16, i64 32, !17, i64 40, !17, i64 44, !18, i64 48, !17, i64 56, !20, i64 64, !17, i64 72, !21, i64 80, !22, i64 88, !23, i64 96, !23, i64 104, !23, i64 112, !17, i64 120, !17, i64 124, !17, i64 128, !23, i64 136, !23, i64 144, !22, i64 152, !17, i64 160, !17, i64 164, !24, i64 168, !17, i64 176, !17, i64 180, !17, i64 184, !17, i64 188, !25, i64 192, !23, i64 200, !17, i64 208, !17, i64 212, !26, i64 216, !17, i64 232, !17, i64 236, !17, i64 240, !17, i64 244, !23, i64 248, !17, i64 256, !17, i64 260, !17, i64 264, !17, i64 268, !17, i64 272, !17, i64 276, !17, i64 280, !17, i64 284, !17, i64 288, !17, i64 292, !17, i64 296, !17, i64 300, !23, i64 304, !17, i64 312, !17, i64 316, !17, i64 320, !17, i64 324, !17, i64 328, !22, i64 336, !22, i64 344, !22, i64 352, !22, i64 360, !17, i64 368, !27, i64 376, !27, i64 384, !27, i64 392, !27, i64 400, !17, i64 408, !6, i64 416, !6, i64 424, !23, i64 432, !22, i64 440, !6, i64 448, !6, i64 456, !23, i64 464}
!13 = !{!"p1 _ZTS7AVClass", !6, i64 0}
!14 = !{!"p1 _ZTS13AVInputFormat", !6, i64 0}
!15 = !{!"p1 _ZTS14AVOutputFormat", !6, i64 0}
!16 = !{!"p1 _ZTS11AVIOContext", !6, i64 0}
!17 = !{!"int", !7, i64 0}
!18 = !{!"p2 _ZTS8AVStream", !19, i64 0}
!19 = !{!"any p2 pointer", !6, i64 0}
!20 = !{!"p2 _ZTS13AVStreamGroup", !19, i64 0}
!21 = !{!"p2 _ZTS9AVChapter", !19, i64 0}
!22 = !{!"p1 omnipotent char", !6, i64 0}
!23 = !{!"long", !7, i64 0}
!24 = !{!"p2 _ZTS9AVProgram", !19, i64 0}
!25 = !{!"p1 _ZTS12AVDictionary", !6, i64 0}
!26 = !{!"AVIOInterruptCB", !6, i64 0, !6, i64 8}
!27 = !{!"p1 _ZTS7AVCodec", !6, i64 0}
!28 = !{!29, !29, i64 0}
!29 = !{!"p1 _ZTS10AC4Context", !6, i64 0}
!30 = !{!12, !16, i64 32}
!31 = !{!16, !16, i64 0}
!32 = !{!33, !17, i64 32}
!33 = !{!"AVPacket", !34, i64 0, !23, i64 8, !23, i64 16, !22, i64 24, !17, i64 32, !17, i64 36, !17, i64 40, !35, i64 48, !17, i64 56, !23, i64 64, !23, i64 72, !6, i64 80, !34, i64 88, !36, i64 96}
!34 = !{!"p1 _ZTS11AVBufferRef", !6, i64 0}
!35 = !{!"p1 _ZTS16AVPacketSideData", !6, i64 0}
!36 = !{!"AVRational", !17, i64 0, !17, i64 4}
!37 = !{!38, !17, i64 8}
!38 = !{!"AC4Context", !13, i64 0, !17, i64 8}
!39 = !{!33, !22, i64 24}
!40 = !{!41, !41, i64 0}
!41 = !{!"short", !7, i64 0}
