; ModuleID = 'bench/ffmpeg/original/ac4enc.ll'
source_filename = "bench/ffmpeg/original/ac4enc.ll"
target datalayout = "e-m:e-p270:32:32-p271:32:32-p272:64:64-i64:64-i128:128-f80:128-n8:16:32:64-S128"
target triple = "x86_64-pc-linux-gnu"

%struct.FFOutputFormat = type { %struct.AVOutputFormat, i32, i32, ptr, ptr, ptr, ptr, ptr, ptr, ptr, ptr, ptr, ptr, ptr, ptr }
%struct.AVOutputFormat = type { ptr, ptr, ptr, ptr, i32, i32, i32, i32, ptr, ptr }
%union.anon = type { i64 }

@.str = private unnamed_addr constant [4 x i8] c"ac4\00", align 1
@.str.1 = private unnamed_addr constant [9 x i8] c"raw AC-4\00", align 1
@.str.2 = private unnamed_addr constant [10 x i8] c"audio/ac4\00", align 1
@ff_ac4_muxer = local_unnamed_addr constant %struct.FFOutputFormat { %struct.AVOutputFormat { ptr @.str, ptr @.str.1, ptr @.str.2, ptr @.str, i32 86119, i32 0, i32 0, i32 128, ptr null, ptr @ac4_muxer_class }, i32 16, i32 12, ptr null, ptr @ac4_write_packet, ptr null, ptr null, ptr null, ptr null, ptr null, ptr null, ptr null, ptr null, ptr null, ptr null }, align 8
@.str.3 = private unnamed_addr constant [10 x i8] c"AC4 muxer\00", align 1
@ac4_muxer_class = internal constant { ptr, ptr, ptr, i32, i32, i32, i32, ptr, ptr, ptr, ptr, i32, [4 x i8] } { ptr @.str.3, ptr @av_default_item_name, ptr @ac4_options, i32 3932772, i32 0, i32 0, i32 0, ptr null, ptr null, ptr null, ptr null, i32 0, [4 x i8] zeroinitializer }, align 8
@.str.5 = private unnamed_addr constant [10 x i8] c"write_crc\00", align 1
@.str.6 = private unnamed_addr constant [16 x i8] c"enable checksum\00", align 1
@ac4_options = internal constant [2 x { ptr, ptr, i32, i32, %union.anon, double, double, i32, [4 x i8], ptr }] [{ ptr, ptr, i32, i32, %union.anon, double, double, i32, [4 x i8], ptr } { ptr @.str.5, ptr @.str.6, i32 8, i32 18, %union.anon zeroinitializer, double 0.000000e+00, double 1.000000e+00, i32 1, [4 x i8] zeroinitializer, ptr null }, { ptr, ptr, i32, i32, %union.anon, double, double, i32, [4 x i8], ptr } zeroinitializer], align 16

; Function Attrs: nounwind uwtable
define internal noundef i32 @ac4_write_packet(ptr noundef readonly captures(none) %0, ptr noundef readonly captures(none) %1) #0 {
  %3 = getelementptr inbounds nuw i8, ptr %0, i64 32
  %4 = load ptr, ptr %3, align 8, !tbaa !4
  %5 = getelementptr inbounds nuw i8, ptr %1, i64 32
  %6 = load i32, ptr %5, align 8, !tbaa !24
  %.not = icmp eq i32 %6, 0
  br i1 %.not, label %29, label %7

7:                                                ; preds = %2
  %8 = getelementptr inbounds nuw i8, ptr %0, i64 24
  %9 = load ptr, ptr %8, align 8, !tbaa !29
  %10 = getelementptr inbounds nuw i8, ptr %9, i64 8
  %11 = load i32, ptr %10, align 8, !tbaa !30
  %.not20 = icmp eq i32 %11, 0
  %. = select i1 %.not20, i32 44096, i32 44097
  tail call void @avio_wb16(ptr noundef %4, i32 noundef %.) #3
  %12 = load i32, ptr %5, align 8, !tbaa !24
  %13 = icmp sgt i32 %12, 65534
  br i1 %13, label %14, label %16

14:                                               ; preds = %7
  tail call void @avio_wb16(ptr noundef %4, i32 noundef 65535) #3
  %15 = load i32, ptr %5, align 8, !tbaa !24
  tail call void @avio_wb24(ptr noundef %4, i32 noundef %15) #3
  br label %17

16:                                               ; preds = %7
  tail call void @avio_wb16(ptr noundef %4, i32 noundef %12) #3
  br label %17

17:                                               ; preds = %16, %14
  %18 = getelementptr inbounds nuw i8, ptr %1, i64 24
  %19 = load ptr, ptr %18, align 8, !tbaa !32
  %20 = load i32, ptr %5, align 8, !tbaa !24
  tail call void @avio_write(ptr noundef %4, ptr noundef %19, i32 noundef %20) #3
  %21 = load i32, ptr %10, align 8, !tbaa !30
  %.not21 = icmp eq i32 %21, 0
  br i1 %.not21, label %29, label %22

22:                                               ; preds = %17
  %23 = tail call ptr @av_crc_get_table(i32 noundef 1) #3
  %24 = load ptr, ptr %18, align 8, !tbaa !32
  %25 = load i32, ptr %5, align 8, !tbaa !24
  %26 = sext i32 %25 to i64
  %27 = tail call i32 @av_crc(ptr noundef %23, i32 noundef 0, ptr noundef %24, i64 noundef %26) #4
  %28 = and i32 %27, 65535
  tail call void @avio_wl16(ptr noundef %4, i32 noundef %28) #3
  br label %29

29:                                               ; preds = %17, %22, %2
  ret i32 0
}

declare ptr @av_default_item_name(ptr noundef) #1

declare void @avio_wb16(ptr noundef, i32 noundef) local_unnamed_addr #1

declare void @avio_wb24(ptr noundef, i32 noundef) local_unnamed_addr #1

declare void @avio_write(ptr noundef, ptr noundef, i32 noundef) local_unnamed_addr #1

; Function Attrs: mustprogress nofree nounwind willreturn memory(read)
declare i32 @av_crc(ptr noundef, i32 noundef, ptr noundef, i64 noundef) local_unnamed_addr #2

declare ptr @av_crc_get_table(i32 noundef) local_unnamed_addr #1

declare void @avio_wl16(ptr noundef, i32 noundef) local_unnamed_addr #1


!llvm.module.flags = !{!0, !1, !2, !3}

!0 = !{i32 1, !"wchar_size", i32 4}
!1 = !{i32 8, !"PIC Level", i32 2}
!2 = !{i32 7, !"uwtable", i32 2}
!3 = !{i32 1, !"override-stack-alignment", i32 16}
!4 = !{!5, !12, i64 32}
!5 = !{!"AVFormatContext", !6, i64 0, !10, i64 8, !11, i64 16, !7, i64 24, !12, i64 32, !13, i64 40, !13, i64 44, !14, i64 48, !13, i64 56, !16, i64 64, !13, i64 72, !17, i64 80, !18, i64 88, !19, i64 96, !19, i64 104, !19, i64 112, !13, i64 120, !13, i64 124, !13, i64 128, !19, i64 136, !19, i64 144, !18, i64 152, !13, i64 160, !13, i64 164, !20, i64 168, !13, i64 176, !13, i64 180, !13, i64 184, !13, i64 188, !21, i64 192, !19, i64 200, !13, i64 208, !13, i64 212, !22, i64 216, !13, i64 232, !13, i64 236, !13, i64 240, !13, i64 244, !19, i64 248, !13, i64 256, !13, i64 260, !13, i64 264, !13, i64 268, !13, i64 272, !13, i64 276, !13, i64 280, !13, i64 284, !13, i64 288, !13, i64 292, !13, i64 296, !13, i64 300, !19, i64 304, !13, i64 312, !13, i64 316, !13, i64 320, !13, i64 324, !13, i64 328, !18, i64 336, !18, i64 344, !18, i64 352, !18, i64 360, !13, i64 368, !23, i64 376, !23, i64 384, !23, i64 392, !23, i64 400, !13, i64 408, !7, i64 416, !7, i64 424, !19, i64 432, !18, i64 440, !7, i64 448, !7, i64 456, !19, i64 464}
!6 = !{!"p1 _ZTS7AVClass", !7, i64 0}
!7 = !{!"any pointer", !8, i64 0}
!8 = !{!"omnipotent char", !9, i64 0}
!9 = !{!"Simple C/C++ TBAA"}
!10 = !{!"p1 _ZTS13AVInputFormat", !7, i64 0}
!11 = !{!"p1 _ZTS14AVOutputFormat", !7, i64 0}
!12 = !{!"p1 _ZTS11AVIOContext", !7, i64 0}
!13 = !{!"int", !8, i64 0}
!14 = !{!"p2 _ZTS8AVStream", !15, i64 0}
!15 = !{!"any p2 pointer", !7, i64 0}
!16 = !{!"p2 _ZTS13AVStreamGroup", !15, i64 0}
!17 = !{!"p2 _ZTS9AVChapter", !15, i64 0}
!18 = !{!"p1 omnipotent char", !7, i64 0}
!19 = !{!"long", !8, i64 0}
!20 = !{!"p2 _ZTS9AVProgram", !15, i64 0}
!21 = !{!"p1 _ZTS12AVDictionary", !7, i64 0}
!22 = !{!"AVIOInterruptCB", !7, i64 0, !7, i64 8}
!23 = !{!"p1 _ZTS7AVCodec", !7, i64 0}
!24 = !{!25, !13, i64 32}
!25 = !{!"AVPacket", !26, i64 0, !19, i64 8, !19, i64 16, !18, i64 24, !13, i64 32, !13, i64 36, !13, i64 40, !27, i64 48, !13, i64 56, !19, i64 64, !19, i64 72, !7, i64 80, !26, i64 88, !28, i64 96}
!26 = !{!"p1 _ZTS11AVBufferRef", !7, i64 0}
!27 = !{!"p1 _ZTS16AVPacketSideData", !7, i64 0}
!28 = !{!"AVRational", !13, i64 0, !13, i64 4}
!29 = !{!5, !7, i64 24}
!30 = !{!31, !13, i64 8}
!31 = !{!"AC4Context", !6, i64 0, !13, i64 8}
!32 = !{!25, !18, i64 24}
